; Function Attrs: nounwind uwtable
define dso_local ptr @get_sortgroupclause_expr(ptr noundef readonly captures(none) %0, ptr noundef readonly captures(address_is_null) %1) local_unnamed_addr #0 {
  %3 = getelementptr inbounds nuw i8, ptr %0, i64 4
  %4 = load i32, ptr %3, align 4
  %.not.i.i = icmp eq ptr %1, null
  br i1 %.not.i.i, label %._crit_edge.i.i, label %.lr.ph.i.i

.lr.ph.i.i:                                       ; preds = %2
  %5 = getelementptr inbounds nuw i8, ptr %1, i64 4
  %6 = load i32, ptr %5, align 4
  %7 = icmp sgt i32 %6, 0
  br i1 %7, label %.lr.ph27.i.i, label %._crit_edge.i.i

.lr.ph27.i.i:                                     ; preds = %.lr.ph.i.i
  %8 = getelementptr inbounds nuw i8, ptr %1, i64 16
  %9 = load ptr, ptr %8, align 8
  %wide.trip.count.i.i = zext nneg i32 %6 to i64
  br label %11

10:                                               ; preds = %11
  %indvars.iv.next.i.i = add nuw nsw i64 %indvars.iv.i.i, 1
  %exitcond.not.i.i = icmp eq i64 %indvars.iv.next.i.i, %wide.trip.count.i.i
  br i1 %exitcond.not.i.i, label %._crit_edge.i.i, label %11

11:                                               ; preds = %10, %.lr.ph27.i.i
  %indvars.iv.i.i = phi i64 [ 0, %.lr.ph27.i.i ], [ %indvars.iv.next.i.i, %10 ]
  %12 = getelementptr inbounds nuw %union.ListCell, ptr %9, i64 %indvars.iv.i.i
  %13 = load ptr, ptr %12, align 8
  %14 = getelementptr inbounds nuw i8, ptr %13, i64 32
  %15 = load i32, ptr %14, align 8
  %.not17.i.i = icmp eq i32 %15, %4
  br i1 %.not17.i.i, label %get_sortgroupclause_tle.exit, label %10

._crit_edge.i.i:                                  ; preds = %10, %.lr.ph.i.i, %2
  %16 = tail call zeroext i1 @errstart_cold(i32 noundef 21, ptr noundef null) #11
  tail call void @llvm.assume(i1 %16)
  %17 = tail call i32 (ptr, ...) @errmsg_internal(ptr noundef nonnull @.str) #10
  tail call void @errfinish(ptr noundef nonnull @.str.1, i32 noundef 357, ptr noundef nonnull @__func__.get_sortgroupref_tle) #10
  unreachable

get_sortgroupclause_tle.exit:                     ; preds = %11
  %18 = getelementptr inbounds nuw i8, ptr %13, i64 8
  %19 = load ptr, ptr %18, align 8
  ret ptr %19
}